; Function Attrs: mustprogress nofree norecurse nosync nounwind willreturn memory(read, inaccessiblemem: none) uwtable
define hidden noundef range(i32 0, 2) i32 @_ZNK4cvc58internal21WithinKindTermContext12computeValueENS0_12NodeTemplateILb0EEEjm(ptr noundef nonnull readonly align 8 captures(none) dereferenceable(12) %0, ptr noundef readonly captures(none) %1, i32 noundef %2, i64 %3) unnamed_addr #6 align 2 {
  %5 = icmp eq i32 %2, 0
  br i1 %5, label %6, label %15

6:                                                ; preds = %4
  %7 = load ptr, ptr %1, align 8, !tbaa !3
  %8 = getelementptr inbounds nuw i8, ptr %7, i64 8
  %9 = load i64, ptr %8, align 8
  %10 = trunc i64 %9 to i32
  %11 = and i32 %10, 1023
  %12 = getelementptr inbounds nuw i8, ptr %0, i64 8
  %13 = load i32, ptr %12, align 8, !tbaa !15
  %14 = icmp eq i32 %11, %13
  %. = zext i1 %14 to i32
  br label %15

15:                                               ; preds = %4, %6
  %.0 = phi i32 [ %., %6 ], [ 1, %4 ]
  ret i32 %.0
}